target datalayout = "e-m:e-p270:32:32-p271:32:32-p272:64:64-i64:64-i128:128-f80:128-n8:16:32:64-S128"
target triple = "x86_64-pc-linux-gnu"

%"class.std::locale::id" = type { i64 }
%"class.fmt::v11::basic_appender" = type { ptr }
%"class.fmt::v11::detail::value" = type { %union.anon }
%union.anon = type { i128 }
%"class.fmt::v11::loc_value" = type { %"class.fmt::v11::basic_format_arg" }
%"class.fmt::v11::basic_format_arg" = type <{ %"class.fmt::v11::detail::value", i32, [12 x i8] }>
%"struct.fmt::v11::detail::locale_ref" = type { ptr }
%"class.std::locale" = type { ptr }
%"class.fmt::v11::format_facet" = type { %"class.std::locale::facet.base", %"class.std::__cxx11::basic_string", %"class.std::__cxx11::basic_string", %"class.std::__cxx11::basic_string" }
%"class.std::locale::facet.base" = type <{ ptr, i32 }>
%"class.std::__cxx11::basic_string" = type { %"struct.std::__cxx11::basic_string<char>::_Alloc_hider", i64, %union.anon.4 }
%"struct.std::__cxx11::basic_string<char>::_Alloc_hider" = type { ptr }
%union.anon.4 = type { i64, [8 x i8] }
%"class.std::locale::_Impl" = type { i32, ptr, i64, ptr, ptr }

@_ZN3fmt3v1112format_facetISt6localeE2idE = linkonce_odr hidden global %"class.std::locale::id" zeroinitializer, comdat, align 8
@_ZTIN3fmt3v1112format_facetISt6localeEE = linkonce_odr hidden constant { ptr, ptr, ptr } { ptr getelementptr inbounds (ptr, ptr @_ZTVN10__cxxabiv120__si_class_type_infoE, i64 2), ptr @_ZTSN3fmt3v1112format_facetISt6localeEE, ptr @_ZTINSt6locale5facetE }, comdat, align 8
@_ZTINSt6locale5facetE = external constant ptr

; Function Attrs: mustprogress uwtable
define linkonce_odr hidden noundef zeroext i1 @_ZNK3fmt3v1112format_facetISt6localeE3putENS0_14basic_appenderIcEENS0_9loc_valueERKNS0_12format_specsE(ptr noundef nonnull align 8 dereferenceable(112) %0, ptr %1, ptr noundef byval(%"class.fmt::v11::loc_value") align 16 %2, ptr noundef nonnull align 4 dereferenceable(16) %3) #4 comdat align 2 {
  %5 = alloca %"class.fmt::v11::basic_appender", align 8
  %6 = alloca ptr, align 8
  %7 = alloca ptr, align 8
  %8 = alloca %"class.fmt::v11::basic_appender", align 8
  %9 = alloca %"class.fmt::v11::loc_value", align 16
  %10 = getelementptr inbounds nuw %"class.fmt::v11::basic_appender", ptr %5, i32 0, i32 0
  store ptr %1, ptr %10, align 8
  store ptr %0, ptr %6, align 8, !tbaa !73
  store ptr %3, ptr %7, align 8, !tbaa !49
  %11 = load ptr, ptr %6, align 8
  call void @llvm.memcpy.p0.p0.i64(ptr align 8 %8, ptr align 8 %5, i64 8, i1 false), !tbaa.struct !51
  call void @llvm.memcpy.p0.p0.i64(ptr align 16 %9, ptr align 16 %2, i64 32, i1 false), !tbaa.struct !52
  %12 = load ptr, ptr %7, align 8, !tbaa !49
  %13 = getelementptr inbounds nuw %"class.fmt::v11::basic_appender", ptr %8, i32 0, i32 0
  %14 = load ptr, ptr %13, align 8
  %15 = load ptr, ptr %11, align 8, !tbaa !75
  %16 = getelementptr inbounds ptr, ptr %15, i64 2
  %17 = load ptr, ptr %16, align 8
  %18 = call noundef zeroext i1 %17(ptr noundef nonnull align 8 dereferenceable(112) %11, ptr %14, ptr noundef byval(%"class.fmt::v11::loc_value") align 16 %9, ptr noundef nonnull align 4 dereferenceable(16) %12)
  ret i1 %18
}

; Function Attrs: mustprogress uwtable
define linkonce_odr hidden noundef nonnull align 8 dereferenceable(112) ptr @_ZSt9use_facetIN3fmt3v1112format_facetISt6localeEEERKT_RKS3_(ptr noundef nonnull align 8 dereferenceable(8) %0) #4 comdat {
  %2 = alloca ptr, align 8
  %3 = alloca i64, align 8
  %4 = alloca ptr, align 8
  store ptr %0, ptr %2, align 8, !tbaa !60
  call void @llvm.lifetime.start.p0(i64 8, ptr %3) #26
  %5 = call noundef i64 @_ZNKSt6locale2id5_M_idEv(ptr noundef nonnull align 8 dereferenceable(8) @_ZN3fmt3v1112format_facetISt6localeE2idE) #26
  store i64 %5, ptr %3, align 8, !tbaa !15
  call void @llvm.lifetime.start.p0(i64 8, ptr %4) #26
  %6 = load ptr, ptr %2, align 8, !tbaa !60
  %7 = getelementptr inbounds nuw %"class.std::locale", ptr %6, i32 0, i32 0
  %8 = load ptr, ptr %7, align 8, !tbaa !62
  %9 = getelementptr inbounds nuw %"class.std::locale::_Impl", ptr %8, i32 0, i32 1
  %10 = load ptr, ptr %9, align 8, !tbaa !65
  store ptr %10, ptr %4, align 8, !tbaa !69
  %11 = load i64, ptr %3, align 8, !tbaa !15
  %12 = load ptr, ptr %2, align 8, !tbaa !60
  %13 = getelementptr inbounds nuw %"class.std::locale", ptr %12, i32 0, i32 0
  %14 = load ptr, ptr %13, align 8, !tbaa !62
  %15 = getelementptr inbounds nuw %"class.std::locale::_Impl", ptr %14, i32 0, i32 2
  %16 = load i64, ptr %15, align 8, !tbaa !70
  %17 = icmp uge i64 %11, %16
  br i1 %17, label %24, label %18

18:                                               ; preds = %1
  %19 = load ptr, ptr %4, align 8, !tbaa !69
  %20 = load i64, ptr %3, align 8, !tbaa !15
  %21 = getelementptr inbounds nuw ptr, ptr %19, i64 %20
  %22 = load ptr, ptr %21, align 8, !tbaa !71
  %23 = icmp ne ptr %22, null
  br i1 %23, label %25, label %24

24:                                               ; preds = %18, %1
  call void @_ZSt16__throw_bad_castv() #28
  unreachable

25:                                               ; preds = %18
  %26 = load ptr, ptr %4, align 8, !tbaa !69
  %27 = load i64, ptr %3, align 8, !tbaa !15
  %28 = getelementptr inbounds nuw ptr, ptr %26, i64 %27
  %29 = load ptr, ptr %28, align 8, !tbaa !71
  %30 = call ptr @__dynamic_cast(ptr %29, ptr @_ZTINSt6locale5facetE, ptr @_ZTIN3fmt3v1112format_facetISt6localeEE, i64 0) #26
  %31 = icmp eq ptr %30, null
  br i1 %31, label %32, label %33

32:                                               ; preds = %25
  call void @__cxa_bad_cast() #28
  unreachable

33:                                               ; preds = %25
  call void @llvm.lifetime.end.p0(i64 8, ptr %4) #26
  call void @llvm.lifetime.end.p0(i64 8, ptr %3) #26
  ret ptr %30
}

; Function Attrs: mustprogress nounwind uwtable
define linkonce_odr hidden noundef zeroext i1 @_ZSt9has_facetIN3fmt3v1112format_facetISt6localeEEEbRKS3_(ptr noundef nonnull align 8 dereferenceable(8) %0) #3 comdat {
  %2 = alloca ptr, align 8
  %3 = alloca i64, align 8
  %4 = alloca ptr, align 8
  store ptr %0, ptr %2, align 8, !tbaa !60
  call void @llvm.lifetime.start.p0(i64 8, ptr %3) #26
  %5 = call noundef i64 @_ZNKSt6locale2id5_M_idEv(ptr noundef nonnull align 8 dereferenceable(8) @_ZN3fmt3v1112format_facetISt6localeE2idE) #26
  store i64 %5, ptr %3, align 8, !tbaa !15
  call void @llvm.lifetime.start.p0(i64 8, ptr %4) #26
  %6 = load ptr, ptr %2, align 8, !tbaa !60
  %7 = getelementptr inbounds nuw %"class.std::locale", ptr %6, i32 0, i32 0
  %8 = load ptr, ptr %7, align 8, !tbaa !62
  %9 = getelementptr inbounds nuw %"class.std::locale::_Impl", ptr %8, i32 0, i32 1
  %10 = load ptr, ptr %9, align 8, !tbaa !65
  store ptr %10, ptr %4, align 8, !tbaa !69
  %11 = load i64, ptr %3, align 8, !tbaa !15
  %12 = load ptr, ptr %2, align 8, !tbaa !60
  %13 = getelementptr inbounds nuw %"class.std::locale", ptr %12, i32 0, i32 0
  %14 = load ptr, ptr %13, align 8, !tbaa !62
  %15 = getelementptr inbounds nuw %"class.std::locale::_Impl", ptr %14, i32 0, i32 2
  %16 = load i64, ptr %15, align 8, !tbaa !70
  %17 = icmp ult i64 %11, %16
  br i1 %17, label %18, label %30

18:                                               ; preds = %1
  %19 = load ptr, ptr %4, align 8, !tbaa !69
  %20 = load i64, ptr %3, align 8, !tbaa !15
  %21 = getelementptr inbounds nuw ptr, ptr %19, i64 %20
  %22 = load ptr, ptr %21, align 8, !tbaa !71
  %23 = icmp eq ptr %22, null
  br i1 %23, label %26, label %24

24:                                               ; preds = %18
  %25 = call ptr @__dynamic_cast(ptr %22, ptr @_ZTINSt6locale5facetE, ptr @_ZTIN3fmt3v1112format_facetISt6localeEE, i64 0) #26
  br label %27

26:                                               ; preds = %18
  br label %27

27:                                               ; preds = %26, %24
  %28 = phi ptr [ %25, %24 ], [ null, %26 ]
  %29 = icmp ne ptr %28, null
  br label %30

30:                                               ; preds = %27, %1
  %31 = phi i1 [ false, %1 ], [ %29, %27 ]
  call void @llvm.lifetime.end.p0(i64 8, ptr %4) #26
  call void @llvm.lifetime.end.p0(i64 8, ptr %3) #26
  ret i1 %31
}

; Function Attrs: mustprogress nounwind uwtable
define weak_odr hidden void @_ZNK3fmt3v116detail10locale_ref3getISt6localeEET_v(ptr dead_on_unwind noalias writable sret(%"class.std::locale") align 8 %0, ptr noundef nonnull align 8 dereferenceable(8) %1) #3 comdat align 2 {
  %3 = alloca ptr, align 8
  %4 = alloca ptr, align 8
  store ptr %0, ptr %3, align 8
  store ptr %1, ptr %4, align 8, !tbaa !56
  %5 = load ptr, ptr %4, align 8
  %6 = getelementptr inbounds nuw %"struct.fmt::v11::detail::locale_ref", ptr %5, i32 0, i32 0
  %7 = load ptr, ptr %6, align 8, !tbaa !58
  %8 = icmp ne ptr %7, null
  br i1 %8, label %9, label %12

9:                                                ; preds = %2
  %10 = getelementptr inbounds nuw %"struct.fmt::v11::detail::locale_ref", ptr %5, i32 0, i32 0
  %11 = load ptr, ptr %10, align 8, !tbaa !58
  call void @_ZNSt6localeC1ERKS_(ptr noundef nonnull align 8 dereferenceable(8) %0, ptr noundef nonnull align 8 dereferenceable(8) %11) #26
  br label %13

12:                                               ; preds = %2
  call void @_ZNSt6localeC1Ev(ptr noundef nonnull align 8 dereferenceable(8) %0) #26
  br label %13

13:                                               ; preds = %12, %9
  ret void
}

; Function Attrs: mustprogress uwtable
define hidden noundef zeroext i1 @_ZN3fmt3v116detail9write_locENS0_14basic_appenderIcEENS0_9loc_valueERKNS0_12format_specsENS1_10locale_refE(ptr %0, ptr noundef byval(%"class.fmt::v11::loc_value") align 16 %1, ptr noundef nonnull align 4 dereferenceable(16) %2, ptr %3) #4 personality ptr @__gxx_personality_v0 {
  %5 = alloca i1, align 1
  %6 = alloca %"class.fmt::v11::basic_appender", align 8
  %7 = alloca %"struct.fmt::v11::detail::locale_ref", align 8
  %8 = alloca ptr, align 8
  %9 = alloca %"class.std::locale", align 8
  %10 = alloca ptr, align 8
  %11 = alloca i32, align 4
  %12 = alloca %"class.fmt::v11::basic_appender", align 8
  %13 = alloca %"class.fmt::v11::loc_value", align 16
  %14 = alloca i32, align 4
  %15 = alloca %"class.fmt::v11::format_facet", align 8
  %16 = alloca %"class.fmt::v11::basic_appender", align 8
  %17 = alloca %"class.fmt::v11::loc_value", align 16
  %18 = getelementptr inbounds nuw %"class.fmt::v11::basic_appender", ptr %6, i32 0, i32 0
  store ptr %0, ptr %18, align 8
  %19 = getelementptr inbounds nuw %"struct.fmt::v11::detail::locale_ref", ptr %7, i32 0, i32 0
  store ptr %3, ptr %19, align 8
  store ptr %2, ptr %8, align 8, !tbaa !49
  call void @llvm.lifetime.start.p0(i64 8, ptr %9) #26
  call void @_ZNK3fmt3v116detail10locale_ref3getISt6localeEET_v(ptr dead_on_unwind writable sret(%"class.std::locale") align 8 %9, ptr noundef nonnull align 8 dereferenceable(8) %7)
  %20 = call noundef zeroext i1 @_ZSt9has_facetIN3fmt3v1112format_facetISt6localeEEEbRKS3_(ptr noundef nonnull align 8 dereferenceable(8) %9) #26
  br i1 %20, label %21, label %33

21:                                               ; preds = %4
  %22 = invoke noundef nonnull align 8 dereferenceable(112) ptr @_ZSt9use_facetIN3fmt3v1112format_facetISt6localeEEERKT_RKS3_(ptr noundef nonnull align 8 dereferenceable(8) %9)
          to label %23 unwind label %29

23:                                               ; preds = %21
  call void @llvm.memcpy.p0.p0.i64(ptr align 8 %12, ptr align 8 %6, i64 8, i1 false), !tbaa.struct !51
  call void @llvm.memcpy.p0.p0.i64(ptr align 16 %13, ptr align 16 %1, i64 32, i1 false), !tbaa.struct !52
  %24 = load ptr, ptr %8, align 8, !tbaa !49
  %25 = getelementptr inbounds nuw %"class.fmt::v11::basic_appender", ptr %12, i32 0, i32 0
  %26 = load ptr, ptr %25, align 8
  %27 = invoke noundef zeroext i1 @_ZNK3fmt3v1112format_facetISt6localeE3putENS0_14basic_appenderIcEENS0_9loc_valueERKNS0_12format_specsE(ptr noundef nonnull align 8 dereferenceable(112) %22, ptr %26, ptr noundef byval(%"class.fmt::v11::loc_value") align 16 %13, ptr noundef nonnull align 4 dereferenceable(16) %24)
          to label %28 unwind label %29

28:                                               ; preds = %23
  store i1 %27, ptr %5, align 1
  store i32 1, ptr %14, align 4
  br label %49

29:                                               ; preds = %23, %21
  %30 = landingpad { ptr, i32 }
          cleanup
  %31 = extractvalue { ptr, i32 } %30, 0
  store ptr %31, ptr %10, align 8
  %32 = extractvalue { ptr, i32 } %30, 1
  store i32 %32, ptr %11, align 4
  br label %51

33:                                               ; preds = %4
  call void @llvm.lifetime.start.p0(i64 112, ptr %15) #26
  invoke void @_ZN3fmt3v1112format_facetISt6localeEC2ERS2_(ptr noundef nonnull align 8 dereferenceable(112) %15, ptr noundef nonnull align 8 dereferenceable(8) %9)
          to label %34 unwind label %40

34:                                               ; preds = %33
  call void @llvm.memcpy.p0.p0.i64(ptr align 8 %16, ptr align 8 %6, i64 8, i1 false), !tbaa.struct !51
  call void @llvm.memcpy.p0.p0.i64(ptr align 16 %17, ptr align 16 %1, i64 32, i1 false), !tbaa.struct !52
  %35 = load ptr, ptr %8, align 8, !tbaa !49
  %36 = getelementptr inbounds nuw %"class.fmt::v11::basic_appender", ptr %16, i32 0, i32 0
  %37 = load ptr, ptr %36, align 8
  %38 = invoke noundef zeroext i1 @_ZNK3fmt3v1112format_facetISt6localeE3putENS0_14basic_appenderIcEENS0_9loc_valueERKNS0_12format_specsE(ptr noundef nonnull align 8 dereferenceable(112) %15, ptr %37, ptr noundef byval(%"class.fmt::v11::loc_value") align 16 %17, ptr noundef nonnull align 4 dereferenceable(16) %35)
          to label %39 unwind label %44

39:                                               ; preds = %34
  store i1 %38, ptr %5, align 1
  call void @_ZN3fmt3v1112format_facetISt6localeED2Ev(ptr noundef nonnull align 8 dereferenceable(112) %15) #26
  call void @llvm.lifetime.end.p0(i64 112, ptr %15) #26
  store i32 1, ptr %14, align 4
  br label %49

40:                                               ; preds = %33
  %41 = landingpad { ptr, i32 }
          cleanup
  %42 = extractvalue { ptr, i32 } %41, 0
  store ptr %42, ptr %10, align 8
  %43 = extractvalue { ptr, i32 } %41, 1
  store i32 %43, ptr %11, align 4
  br label %48

44:                                               ; preds = %34
  %45 = landingpad { ptr, i32 }
          cleanup
  %46 = extractvalue { ptr, i32 } %45, 0
  store ptr %46, ptr %10, align 8
  %47 = extractvalue { ptr, i32 } %45, 1
  store i32 %47, ptr %11, align 4
  call void @_ZN3fmt3v1112format_facetISt6localeED2Ev(ptr noundef nonnull align 8 dereferenceable(112) %15) #26
  br label %48

48:                                               ; preds = %44, %40
  call void @llvm.lifetime.end.p0(i64 112, ptr %15) #26
  br label %51

49:                                               ; preds = %39, %28
  call void @_ZNSt6localeD1Ev(ptr noundef nonnull align 8 dereferenceable(8) %9) #26
  call void @llvm.lifetime.end.p0(i64 8, ptr %9) #26
  %50 = load i1, ptr %5, align 1
  ret i1 %50

51:                                               ; preds = %48, %29
  call void @_ZNSt6localeD1Ev(ptr noundef nonnull align 8 dereferenceable(8) %9) #26
  call void @llvm.lifetime.end.p0(i64 8, ptr %9) #26
  br label %52

52:                                               ; preds = %51
  %53 = load ptr, ptr %10, align 8
  %54 = load i32, ptr %11, align 4
  %55 = insertvalue { ptr, i32 } poison, ptr %53, 0
  %56 = insertvalue { ptr, i32 } %55, i32 %54, 1
  resume { ptr, i32 } %56
}