; Function Attrs: mustprogress uwtable
define hidden noundef zeroext i1 @_ZN3fmt3v116detail9write_locENS0_14basic_appenderIcEENS0_9loc_valueERKNS0_12format_specsENS1_10locale_refE(ptr %0, ptr noundef readonly byval(%"class.fmt::v11::loc_value") align 16 captures(none) %1, ptr noundef nonnull align 4 dereferenceable(16) %2, ptr %3) local_unnamed_addr #7 personality ptr @__gxx_personality_v0 {
  %5 = alloca %"class.std::locale", align 8
  %6 = alloca %"class.fmt::v11::format_facet", align 8
  call void @llvm.lifetime.start.p0(i64 8, ptr nonnull %5) #34
  %.not.i = icmp eq ptr %3, null
  br i1 %.not.i, label %8, label %7

7:                                                ; preds = %4
  call void @_ZNSt6localeC1ERKS_(ptr noundef nonnull align 8 dereferenceable(8) %5, ptr noundef nonnull align 8 dereferenceable(8) %3) #34
  br label %_ZNK3fmt3v116detail10locale_ref3getISt6localeEET_v.exit

8:                                                ; preds = %4
  call void @_ZNSt6localeC1Ev(ptr noundef nonnull align 8 dereferenceable(8) %5) #34
  br label %_ZNK3fmt3v116detail10locale_ref3getISt6localeEET_v.exit

_ZNK3fmt3v116detail10locale_ref3getISt6localeEET_v.exit: ; preds = %7, %8
  %9 = call noundef i64 @_ZNKSt6locale2id5_M_idEv(ptr noundef nonnull align 8 dereferenceable(8) @_ZN3fmt3v1112format_facetISt6localeE2idE) #34
  %10 = load ptr, ptr %5, align 8, !tbaa !18
  %11 = getelementptr inbounds nuw i8, ptr %10, i64 16
  %12 = load i64, ptr %11, align 8, !tbaa !21
  %13 = icmp ult i64 %9, %12
  br i1 %13, label %14, label %_ZSt9has_facetIN3fmt3v1112format_facetISt6localeEEEbRKS3_.exit.thread

14:                                               ; preds = %_ZNK3fmt3v116detail10locale_ref3getISt6localeEET_v.exit
  %15 = getelementptr inbounds nuw i8, ptr %10, i64 8
  %16 = load ptr, ptr %15, align 8, !tbaa !26
  %17 = getelementptr inbounds nuw ptr, ptr %16, i64 %9
  %18 = load ptr, ptr %17, align 8, !tbaa !27
  %19 = icmp eq ptr %18, null
  br i1 %19, label %_ZSt9has_facetIN3fmt3v1112format_facetISt6localeEEEbRKS3_.exit.thread, label %_ZSt9has_facetIN3fmt3v1112format_facetISt6localeEEEbRKS3_.exit

_ZSt9has_facetIN3fmt3v1112format_facetISt6localeEEEbRKS3_.exit: ; preds = %14
  %20 = call ptr @__dynamic_cast(ptr nonnull %18, ptr nonnull @_ZTINSt6locale5facetE, ptr nonnull @_ZTIN3fmt3v1112format_facetISt6localeEE, i64 0) #34
  %.not = icmp eq ptr %20, null
  br i1 %.not, label %_ZSt9has_facetIN3fmt3v1112format_facetISt6localeEEEbRKS3_.exit.thread, label %21

21:                                               ; preds = %_ZSt9has_facetIN3fmt3v1112format_facetISt6localeEEEbRKS3_.exit
  %22 = call noundef i64 @_ZNKSt6locale2id5_M_idEv(ptr noundef nonnull align 8 dereferenceable(8) @_ZN3fmt3v1112format_facetISt6localeE2idE) #34
  %23 = load ptr, ptr %5, align 8, !tbaa !18
  %24 = getelementptr inbounds nuw i8, ptr %23, i64 16
  %25 = load i64, ptr %24, align 8, !tbaa !21
  %.not.i12 = icmp ult i64 %22, %25
  br i1 %.not.i12, label %26, label %31

26:                                               ; preds = %21
  %27 = getelementptr inbounds nuw i8, ptr %23, i64 8
  %28 = load ptr, ptr %27, align 8, !tbaa !26
  %29 = getelementptr inbounds nuw ptr, ptr %28, i64 %22
  %30 = load ptr, ptr %29, align 8, !tbaa !27
  %.not8.i = icmp eq ptr %30, null
  br i1 %.not8.i, label %31, label %32

31:                                               ; preds = %26, %21
  invoke void @_ZSt16__throw_bad_castv() #36
          to label %.noexc unwind label %40

.noexc:                                           ; preds = %31
  unreachable

32:                                               ; preds = %26
  %33 = call ptr @__dynamic_cast(ptr nonnull %30, ptr nonnull @_ZTINSt6locale5facetE, ptr nonnull @_ZTIN3fmt3v1112format_facetISt6localeEE, i64 0) #34
  %34 = icmp eq ptr %33, null
  br i1 %34, label %35, label %_ZSt9use_facetIN3fmt3v1112format_facetISt6localeEEERKT_RKS3_.exit

35:                                               ; preds = %32
  invoke void @__cxa_bad_cast() #36
          to label %.noexc13 unwind label %40

.noexc13:                                         ; preds = %35
  unreachable

_ZSt9use_facetIN3fmt3v1112format_facetISt6localeEEERKT_RKS3_.exit: ; preds = %32
  %36 = load ptr, ptr %33, align 8, !tbaa !29
  %37 = getelementptr inbounds nuw i8, ptr %36, i64 16
  %38 = load ptr, ptr %37, align 8
  %39 = invoke noundef zeroext i1 %38(ptr noundef nonnull align 8 dereferenceable(112) %33, ptr %0, ptr noundef nonnull byval(%"class.fmt::v11::loc_value") align 16 %1, ptr noundef nonnull align 4 dereferenceable(16) %2)
          to label %_ZNK3fmt3v1112format_facetISt6localeE3putENS0_14basic_appenderIcEENS0_9loc_valueERKNS0_12format_specsE.exit unwind label %40

40:                                               ; preds = %_ZSt9use_facetIN3fmt3v1112format_facetISt6localeEEERKT_RKS3_.exit, %35, %31
  %41 = landingpad { ptr, i32 }
          cleanup
  br label %80

_ZSt9has_facetIN3fmt3v1112format_facetISt6localeEEEbRKS3_.exit.thread: ; preds = %14, %_ZNK3fmt3v116detail10locale_ref3getISt6localeEET_v.exit, %_ZSt9has_facetIN3fmt3v1112format_facetISt6localeEEEbRKS3_.exit
  call void @llvm.lifetime.start.p0(i64 112, ptr nonnull %6) #34
  invoke void @_ZN3fmt3v1112format_facetISt6localeEC2ERS2_(ptr noundef nonnull align 8 dereferenceable(112) %6, ptr noundef nonnull align 8 dereferenceable(8) %5)
          to label %42 unwind label %75

42:                                               ; preds = %_ZSt9has_facetIN3fmt3v1112format_facetISt6localeEEEbRKS3_.exit.thread
  %43 = load ptr, ptr %6, align 8, !tbaa !29
  %44 = getelementptr inbounds nuw i8, ptr %43, i64 16
  %45 = load ptr, ptr %44, align 8
  %46 = invoke noundef zeroext i1 %45(ptr noundef nonnull align 8 dereferenceable(112) %6, ptr %0, ptr noundef nonnull byval(%"class.fmt::v11::loc_value") align 16 %1, ptr noundef nonnull align 4 dereferenceable(16) %2)
          to label %47 unwind label %77

47:                                               ; preds = %42
  store ptr getelementptr inbounds nuw inrange(-16, 24) (i8, ptr @_ZTVN3fmt3v1112format_facetISt6localeEE, i64 16), ptr %6, align 8, !tbaa !29
  %48 = getelementptr inbounds nuw i8, ptr %6, i64 80
  %49 = load ptr, ptr %48, align 8, !tbaa !31
  %50 = getelementptr inbounds nuw i8, ptr %6, i64 96
  %51 = icmp eq ptr %49, %50
  br i1 %51, label %_ZNKSt7__cxx1112basic_stringIcSt11char_traitsIcESaIcEE11_M_is_localEv.exit.thread.i.i.i, label %_ZNKSt7__cxx1112basic_stringIcSt11char_traitsIcESaIcEE11_M_is_localEv.exit.i.i.i

_ZNKSt7__cxx1112basic_stringIcSt11char_traitsIcESaIcEE11_M_is_localEv.exit.thread.i.i.i: ; preds = %47
  %52 = getelementptr inbounds nuw i8, ptr %6, i64 88
  %53 = load i64, ptr %52, align 8, !tbaa !34
  %54 = icmp ult i64 %53, 16
  call void @llvm.assume(i1 %54)
  br label %_ZNSt7__cxx1112basic_stringIcSt11char_traitsIcESaIcEED2Ev.exit.i

_ZNKSt7__cxx1112basic_stringIcSt11char_traitsIcESaIcEE11_M_is_localEv.exit.i.i.i: ; preds = %47
  %55 = load i64, ptr %50, align 8, !tbaa !14
  %56 = add i64 %55, 1
  call void @_ZdlPvm(ptr noundef %49, i64 noundef %56) #37
  br label %_ZNSt7__cxx1112basic_stringIcSt11char_traitsIcESaIcEED2Ev.exit.i

_ZNSt7__cxx1112basic_stringIcSt11char_traitsIcESaIcEED2Ev.exit.i: ; preds = %_ZNKSt7__cxx1112basic_stringIcSt11char_traitsIcESaIcEE11_M_is_localEv.exit.i.i.i, %_ZNKSt7__cxx1112basic_stringIcSt11char_traitsIcESaIcEE11_M_is_localEv.exit.thread.i.i.i
  %57 = getelementptr inbounds nuw i8, ptr %6, i64 48
  %58 = load ptr, ptr %57, align 8, !tbaa !31
  %59 = getelementptr inbounds nuw i8, ptr %6, i64 64
  %60 = icmp eq ptr %58, %59
  br i1 %60, label %_ZNKSt7__cxx1112basic_stringIcSt11char_traitsIcESaIcEE11_M_is_localEv.exit.thread.i.i2.i, label %_ZNKSt7__cxx1112basic_stringIcSt11char_traitsIcESaIcEE11_M_is_localEv.exit.i.i1.i

_ZNKSt7__cxx1112basic_stringIcSt11char_traitsIcESaIcEE11_M_is_localEv.exit.thread.i.i2.i: ; preds = %_ZNSt7__cxx1112basic_stringIcSt11char_traitsIcESaIcEED2Ev.exit.i
  %61 = getelementptr inbounds nuw i8, ptr %6, i64 56
  %62 = load i64, ptr %61, align 8, !tbaa !34
  %63 = icmp ult i64 %62, 16
  call void @llvm.assume(i1 %63)
  br label %_ZNSt7__cxx1112basic_stringIcSt11char_traitsIcESaIcEED2Ev.exit3.i

_ZNKSt7__cxx1112basic_stringIcSt11char_traitsIcESaIcEE11_M_is_localEv.exit.i.i1.i: ; preds = %_ZNSt7__cxx1112basic_stringIcSt11char_traitsIcESaIcEED2Ev.exit.i
  %64 = load i64, ptr %59, align 8, !tbaa !14
  %65 = add i64 %64, 1
  call void @_ZdlPvm(ptr noundef %58, i64 noundef %65) #37
  br label %_ZNSt7__cxx1112basic_stringIcSt11char_traitsIcESaIcEED2Ev.exit3.i

_ZNSt7__cxx1112basic_stringIcSt11char_traitsIcESaIcEED2Ev.exit3.i: ; preds = %_ZNKSt7__cxx1112basic_stringIcSt11char_traitsIcESaIcEE11_M_is_localEv.exit.i.i1.i, %_ZNKSt7__cxx1112basic_stringIcSt11char_traitsIcESaIcEE11_M_is_localEv.exit.thread.i.i2.i
  %66 = getelementptr inbounds nuw i8, ptr %6, i64 16
  %67 = load ptr, ptr %66, align 8, !tbaa !31
  %68 = getelementptr inbounds nuw i8, ptr %6, i64 32
  %69 = icmp eq ptr %67, %68
  br i1 %69, label %_ZNKSt7__cxx1112basic_stringIcSt11char_traitsIcESaIcEE11_M_is_localEv.exit.thread.i.i5.i, label %_ZNKSt7__cxx1112basic_stringIcSt11char_traitsIcESaIcEE11_M_is_localEv.exit.i.i4.i

_ZNKSt7__cxx1112basic_stringIcSt11char_traitsIcESaIcEE11_M_is_localEv.exit.thread.i.i5.i: ; preds = %_ZNSt7__cxx1112basic_stringIcSt11char_traitsIcESaIcEED2Ev.exit3.i
  %70 = getelementptr inbounds nuw i8, ptr %6, i64 24
  %71 = load i64, ptr %70, align 8, !tbaa !34
  %72 = icmp ult i64 %71, 16
  call void @llvm.assume(i1 %72)
  br label %_ZN3fmt3v1112format_facetISt6localeED2Ev.exit

_ZNKSt7__cxx1112basic_stringIcSt11char_traitsIcESaIcEE11_M_is_localEv.exit.i.i4.i: ; preds = %_ZNSt7__cxx1112basic_stringIcSt11char_traitsIcESaIcEED2Ev.exit3.i
  %73 = load i64, ptr %68, align 8, !tbaa !14
  %74 = add i64 %73, 1
  call void @_ZdlPvm(ptr noundef %67, i64 noundef %74) #37
  br label %_ZN3fmt3v1112format_facetISt6localeED2Ev.exit

_ZN3fmt3v1112format_facetISt6localeED2Ev.exit:    ; preds = %_ZNKSt7__cxx1112basic_stringIcSt11char_traitsIcESaIcEE11_M_is_localEv.exit.thread.i.i5.i, %_ZNKSt7__cxx1112basic_stringIcSt11char_traitsIcESaIcEE11_M_is_localEv.exit.i.i4.i
  call void @_ZNSt6locale5facetD2Ev(ptr noundef nonnull align 8 dereferenceable(112) %6) #34
  call void @llvm.lifetime.end.p0(i64 112, ptr nonnull %6) #34
  br label %_ZNK3fmt3v1112format_facetISt6localeE3putENS0_14basic_appenderIcEENS0_9loc_valueERKNS0_12format_specsE.exit

75:                                               ; preds = %_ZSt9has_facetIN3fmt3v1112format_facetISt6localeEEEbRKS3_.exit.thread
  %76 = landingpad { ptr, i32 }
          cleanup
  br label %79

77:                                               ; preds = %42
  %78 = landingpad { ptr, i32 }
          cleanup
  call void @_ZN3fmt3v1112format_facetISt6localeED2Ev(ptr noundef nonnull align 8 dereferenceable(112) %6) #34
  br label %79

79:                                               ; preds = %77, %75
  %.pn = phi { ptr, i32 } [ %78, %77 ], [ %76, %75 ]
  call void @llvm.lifetime.end.p0(i64 112, ptr nonnull %6) #34
  br label %80

_ZNK3fmt3v1112format_facetISt6localeE3putENS0_14basic_appenderIcEENS0_9loc_valueERKNS0_12format_specsE.exit: ; preds = %_ZSt9use_facetIN3fmt3v1112format_facetISt6localeEEERKT_RKS3_.exit, %_ZN3fmt3v1112format_facetISt6localeED2Ev.exit
  %.0 = phi i1 [ %46, %_ZN3fmt3v1112format_facetISt6localeED2Ev.exit ], [ %39, %_ZSt9use_facetIN3fmt3v1112format_facetISt6localeEEERKT_RKS3_.exit ]
  call void @_ZNSt6localeD1Ev(ptr noundef nonnull align 8 dereferenceable(8) %5) #34
  call void @llvm.lifetime.end.p0(i64 8, ptr nonnull %5) #34
  ret i1 %.0

80:                                               ; preds = %79, %40
  %.pn10 = phi { ptr, i32 } [ %41, %40 ], [ %.pn, %79 ]
  call void @_ZNSt6localeD1Ev(ptr noundef nonnull align 8 dereferenceable(8) %5) #34
  call void @llvm.lifetime.end.p0(i64 8, ptr nonnull %5) #34
  resume { ptr, i32 } %.pn10
}